target datalayout = "e-m:e-p270:32:32-p271:32:32-p272:64:64-i64:64-i128:128-f80:128-n8:16:32:64-S128"
target triple = "x86_64-pc-linux-gnu"

%struct.darktable_t = type { %struct.dt_codepath_t, i32, i32, ptr, ptr, ptr, ptr, ptr, ptr, ptr, ptr, ptr, ptr, ptr, ptr, ptr, ptr, ptr, ptr, ptr, ptr, ptr, ptr, ptr, ptr, ptr, ptr, ptr, ptr, ptr, [64 x %struct.dt_pthread_mutex_t], %struct.dt_pthread_mutex_t, %struct.dt_pthread_mutex_t, %struct.dt_pthread_mutex_t, %struct.dt_pthread_mutex_t, %struct.dt_pthread_mutex_t, ptr, ptr, ptr, ptr, ptr, ptr, ptr, ptr, ptr, ptr, ptr, ptr, ptr, %struct.dt_lua_state_t, ptr, double, ptr, i32, [47 x i32], i32, i32, ptr, ptr, %struct.dt_sys_resources_t, %struct.dt_backthumb_t, %struct.dt_gimp_t }
%struct.dt_codepath_t = type { i8, [3 x i8] }
%struct.dt_pthread_mutex_t = type { %union.pthread_mutex_t }
%union.pthread_mutex_t = type { %struct.__pthread_mutex_s }
%struct.__pthread_mutex_s = type { i32, i32, i32, i32, i32, i16, i16, %struct.__pthread_internal_list }
%struct.__pthread_internal_list = type { ptr, ptr }
%struct.dt_lua_state_t = type { i32 }
%struct.dt_sys_resources_t = type { i64, i64, ptr, ptr, i32 }
%struct.dt_backthumb_t = type { double, double, i32, i32, i32, i32 }
%struct.dt_gimp_t = type { i32, ptr, ptr, i32, i32 }
%struct.dt_lib_t = type { ptr, ptr, %struct.anon }
%struct.anon = type { %struct.anon.0, %struct.anon.1, %struct.anon.2, %struct.anon.3 }
%struct.anon.0 = type { ptr, ptr, ptr, ptr, ptr, i32, i32, i32, ptr, ptr, ptr, ptr, ptr }
%struct.anon.1 = type { ptr, ptr, i32 }
%struct.anon.2 = type { ptr }
%struct.anon.3 = type { i32 }

@darktable = external global %struct.darktable_t, align 8
@.str.3 = private unnamed_addr constant [112 x i8] c"generated/home/dtcxzyw/WorkSpace/Projects/compilers/llvm-opt-benchmark/bench/darktable/darktable/src/libs/lib.c\00", align 1
@.str.41 = private unnamed_addr constant [20 x i8] c"/plugins/lighttable\00", align 1
@.str.42 = private unnamed_addr constant [52 x i8] c"[signal] connect    %s to %s; %s:%d, function: %s()\00", align 1
@.str.43 = private unnamed_addr constant [21 x i8] c"_preferences_changed\00", align 1
@.str.44 = private unnamed_addr constant [29 x i8] c"DT_SIGNAL_PREFERENCES_CHANGE\00", align 1
@__FUNCTION__.dt_lib_init = private unnamed_addr constant [12 x i8] c"dt_lib_init\00", align 1

; Function Attrs: nounwind uwtable
define void @dt_lib_init(ptr noundef %0) #0 {
  %2 = alloca ptr, align 8
  store ptr %0, ptr %2, align 8, !tbaa !181
  %3 = load ptr, ptr %2, align 8, !tbaa !181
  call void @llvm.memset.p0.i64(ptr align 8 %3, i8 0, i64 152, i1 false)
  %4 = call ptr @dt_module_load_modules(ptr noundef @.str.41, i64 noundef 472, ptr noundef @dt_lib_load_module, ptr noundef @dt_lib_init_module, ptr noundef @dt_lib_sort_plugins)
  %5 = load ptr, ptr getelementptr inbounds nuw (%struct.darktable_t, ptr @darktable, i32 0, i32 10), align 8, !tbaa !79
  %6 = getelementptr inbounds nuw %struct.dt_lib_t, ptr %5, i32 0, i32 0
  store ptr %4, ptr %6, align 8, !tbaa !80
  br label %7

7:                                                ; preds = %1
  %8 = load i32, ptr getelementptr inbounds nuw (%struct.darktable_t, ptr @darktable, i32 0, i32 53), align 8, !tbaa !100
  %9 = and i32 %8, 2
  %10 = icmp ne i32 %9, 0
  br i1 %10, label %11, label %27

11:                                               ; preds = %7
  %12 = load i32, ptr getelementptr inbounds ([47 x i32], ptr getelementptr inbounds nuw (%struct.darktable_t, ptr @darktable, i32 0, i32 54), i64 0, i64 37), align 4, !tbaa !62
  %13 = icmp ne i32 %12, 0
  br i1 %13, label %14, label %27

14:                                               ; preds = %11
  br label %15

15:                                               ; preds = %14
  %16 = load i32, ptr getelementptr inbounds nuw (%struct.darktable_t, ptr @darktable, i32 0, i32 2), align 8, !tbaa !21
  %17 = and i32 1048576, %16
  %18 = icmp ne i32 %17, 0
  br i1 %18, label %19, label %25

19:                                               ; preds = %15
  %20 = load i32, ptr getelementptr inbounds nuw (%struct.darktable_t, ptr @darktable, i32 0, i32 2), align 8, !tbaa !21
  %21 = xor i32 %20, -1
  %22 = and i32 0, %21
  %23 = icmp ne i32 %22, 0
  br i1 %23, label %25, label %24

24:                                               ; preds = %19
  call void (ptr, ...) @dt_print_ext(ptr noundef @.str.42, ptr noundef @.str.43, ptr noundef @.str.44, ptr noundef @.str.3, i32 noundef 1361, ptr noundef @__FUNCTION__.dt_lib_init)
  br label %25

25:                                               ; preds = %24, %19, %15
  br label %26

26:                                               ; preds = %25
  br label %27

27:                                               ; preds = %26, %11, %7
  %28 = load ptr, ptr getelementptr inbounds nuw (%struct.darktable_t, ptr @darktable, i32 0, i32 13), align 8, !tbaa !101
  %29 = load ptr, ptr %2, align 8, !tbaa !181
  call void @dt_control_signal_connect(ptr noundef %28, i32 noundef 37, ptr noundef @_preferences_changed, ptr noundef %29)
  br label %30

30:                                               ; preds = %27
  ret void
}