; Function Attrs: nounwind uwtable
define void @dt_lib_init(ptr noundef initializes((0, 152)) %0) local_unnamed_addr #0 {
  tail call void @llvm.memset.p0.i64(ptr noundef nonnull align 8 dereferenceable(152) %0, i8 0, i64 152, i1 false)
  %2 = tail call ptr @dt_module_load_modules(ptr noundef nonnull @.str.41, i64 noundef 472, ptr noundef nonnull @dt_lib_load_module, ptr noundef nonnull @dt_lib_init_module, ptr noundef nonnull @dt_lib_sort_plugins) #19
  %3 = load ptr, ptr getelementptr inbounds nuw (i8, ptr @darktable, i64 72), align 8, !tbaa !71
  store ptr %2, ptr %3, align 8, !tbaa !154
  %4 = load i32, ptr getelementptr inbounds nuw (i8, ptr @darktable, i64 3128), align 8, !tbaa !81
  %5 = and i32 %4, 2
  %6 = icmp ne i32 %5, 0
  %7 = load i32, ptr getelementptr inbounds nuw (i8, ptr @darktable, i64 3280), align 8
  %8 = icmp ne i32 %7, 0
  %or.cond = select i1 %6, i1 %8, i1 false
  br i1 %or.cond, label %9, label %13

9:                                                ; preds = %1
  %10 = load i32, ptr getelementptr inbounds nuw (i8, ptr @darktable, i64 8), align 8, !tbaa !59
  %11 = and i32 %10, 1048576
  %.not = icmp eq i32 %11, 0
  br i1 %.not, label %13, label %12

12:                                               ; preds = %9
  tail call void (ptr, ...) @dt_print_ext(ptr noundef nonnull @.str.42, ptr noundef nonnull @.str.43, ptr noundef nonnull @.str.44, ptr noundef nonnull @.str.3, i32 noundef 1361, ptr noundef nonnull @__FUNCTION__.dt_lib_init) #19
  br label %13

13:                                               ; preds = %12, %9, %1
  %14 = load ptr, ptr getelementptr inbounds nuw (i8, ptr @darktable, i64 96), align 8, !tbaa !82
  tail call void @dt_control_signal_connect(ptr noundef %14, i32 noundef 37, ptr noundef nonnull @_preferences_changed, ptr noundef nonnull %0) #19
  ret void
}